target datalayout = "e-m:e-p270:32:32-p271:32:32-p272:64:64-i64:64-i128:128-f80:128-n8:16:32:64-S128"
target triple = "x86_64-unknown-linux-gnu"

@.str.255 = private unnamed_addr constant [19 x i8] c"\0D\0A# Cluster info\0D\0A\00", align 1
@.str.256 = private unnamed_addr constant [37 x i8] c"\0A------ CLUSTER NODES OUTPUT ------\0A\00", align 1

; Function Attrs: nounwind uwtable
define dso_local ptr @genClusterDebugString(ptr noundef %infostring) #0 {
entry:
  %infostring.addr = alloca ptr, align 8
  %cluster_info = alloca ptr, align 8
  %cluster_nodes = alloca ptr, align 8
  store ptr %infostring, ptr %infostring.addr, align 8
  %call = call ptr @genClusterInfoString()
  store ptr %call, ptr %cluster_info, align 8
  %call1 = call ptr @clusterGenNodesDescription(ptr noundef null, i32 noundef 0, i32 noundef 0)
  store ptr %call1, ptr %cluster_nodes, align 8
  %0 = load ptr, ptr %infostring.addr, align 8
  %call2 = call ptr (ptr, ptr, ...) @sdscatprintf(ptr noundef %0, ptr noundef @.str.255)
  store ptr %call2, ptr %infostring.addr, align 8
  %1 = load ptr, ptr %infostring.addr, align 8
  %2 = load ptr, ptr %cluster_info, align 8
  %call3 = call ptr @sdscatsds(ptr noundef %1, ptr noundef %2)
  store ptr %call3, ptr %infostring.addr, align 8
  %3 = load ptr, ptr %infostring.addr, align 8
  %call4 = call ptr (ptr, ptr, ...) @sdscatprintf(ptr noundef %3, ptr noundef @.str.256)
  store ptr %call4, ptr %infostring.addr, align 8
  %4 = load ptr, ptr %infostring.addr, align 8
  %5 = load ptr, ptr %cluster_nodes, align 8
  %call5 = call ptr @sdscatsds(ptr noundef %4, ptr noundef %5)
  store ptr %call5, ptr %infostring.addr, align 8
  %6 = load ptr, ptr %cluster_info, align 8
  call void @sdsfree(ptr noundef %6)
  %7 = load ptr, ptr %cluster_nodes, align 8
  call void @sdsfree(ptr noundef %7)
  %8 = load ptr, ptr %infostring.addr, align 8
  ret ptr %8
}