; Function Attrs: nounwind uwtable
define dso_local ptr @genClusterDebugString(ptr noundef %infostring) local_unnamed_addr #0 {
entry:
  %call = tail call ptr @genClusterInfoString() #22
  %call1 = tail call ptr @clusterGenNodesDescription(ptr noundef null, i32 noundef 0, i32 noundef 0) #22
  %call2 = tail call ptr (ptr, ptr, ...) @sdscatprintf(ptr noundef %infostring, ptr noundef nonnull @.str.255) #22
  %call3 = tail call ptr @sdscatsds(ptr noundef %call2, ptr noundef %call) #22
  %call4 = tail call ptr (ptr, ptr, ...) @sdscatprintf(ptr noundef %call3, ptr noundef nonnull @.str.256) #22
  %call5 = tail call ptr @sdscatsds(ptr noundef %call4, ptr noundef %call1) #22
  tail call void @sdsfree(ptr noundef %call) #22
  tail call void @sdsfree(ptr noundef %call1) #22
  ret ptr %call5
}